target datalayout = "e-m:e-p270:32:32-p271:32:32-p272:64:64-i64:64-i128:128-f80:128-n8:16:32:64-S128"
target triple = "x86_64-pc-linux-gnu"

%struct.XLogCtlData = type { %struct.XLogCtlInsert, %struct.XLogwrtRqst, i64, %struct.FullTransactionId, i64, i64, i64, %struct.pg_atomic_uint64, i64, i64, %struct.pg_atomic_uint64, %struct.pg_atomic_uint64, %struct.pg_atomic_uint64, i64, ptr, ptr, i32, i32, i32, i32, i8, i8, i64, i64, %struct.CheckPoint, i64, i8 }
%struct.XLogCtlInsert = type { i8, i64, i64, [128 x i8], i64, i8, i32, i64, ptr }
%struct.XLogwrtRqst = type { i64, i64 }
%struct.FullTransactionId = type { i64 }
%struct.pg_atomic_uint64 = type { i64 }
%struct.CheckPoint = type { i64, i32, i32, i8, i32, %struct.FullTransactionId, i32, i32, i32, i32, i32, i32, i32, i64, i32, i32, i32 }
%struct.LWLock = type { i16, %struct.pg_atomic_uint32, %struct.proclist_head }
%struct.pg_atomic_uint32 = type { i32 }
%struct.proclist_head = type { i32, i32 }
%union.LWLockPadded = type { %struct.LWLock, [112 x i8] }
%struct.ControlFileData = type { i64, i32, i32, i32, i64, i64, %struct.CheckPoint, i64, i64, i32, i64, i64, i8, i32, i8, i32, i32, i32, i32, i32, i8, i32, double, i32, i32, i32, i32, i32, i32, i32, i32, i8, i32, [32 x i8], i32 }

@XLogCtl = internal global ptr null, align 8
@.str.14 = private unnamed_addr constant [7 x i8] c"xlog.c\00", align 1
@MainLWLockArray = external global ptr, align 8
@LocalMinRecoveryPoint = internal global i64 0, align 8
@updateMinRecoveryPoint = internal global i8 1, align 1
@ControlFile = internal global ptr null, align 8
@LocalMinRecoveryPointTLI = internal global i32 0, align 4
@__func__.SwitchIntoArchiveRecovery = private unnamed_addr constant [26 x i8] c"SwitchIntoArchiveRecovery\00", align 1
@DataDir = external global ptr, align 8

; Function Attrs: inlinehint nounwind uwtable
define internal i32 @tas(ptr noundef %0) #6 {
  %2 = alloca ptr, align 8
  %3 = alloca i8, align 1
  store ptr %0, ptr %2, align 8
  call void @llvm.lifetime.start.p0(i64 1, ptr %3) #16
  store i8 1, ptr %3, align 1
  %4 = load i8, ptr %3, align 1
  %5 = load ptr, ptr %2, align 8
  %6 = call i8 asm sideeffect "\09lock\09\09\09\0A\09xchgb\09$0,$1\09\0A", "=q,=*m,0,*m,~{memory},~{cc},~{dirflag},~{fpsr},~{flags}"(ptr elementtype(i8) %5, i8 %4, ptr elementtype(i8) %5) #16, !srcloc !18
  store i8 %6, ptr %3, align 1
  %7 = load i8, ptr %3, align 1
  %8 = zext i8 %7 to i32
  call void @llvm.lifetime.end.p0(i64 1, ptr %3) #16
  ret i32 %8
}

; Function Attrs: nounwind uwtable
define internal void @UpdateControlFile() #0 {
  %1 = load ptr, ptr @DataDir, align 8
  %2 = load ptr, ptr @ControlFile, align 8
  call void @update_controlfile(ptr noundef %1, ptr noundef %2, i1 noundef zeroext true)
  ret void
}

; Function Attrs: nounwind uwtable
define dso_local void @SwitchIntoArchiveRecovery(i64 noundef %0, i32 noundef %1) #0 {
  %3 = alloca i64, align 8
  %4 = alloca i32, align 4
  store i64 %0, ptr %3, align 8
  store i32 %1, ptr %4, align 4
  %5 = load ptr, ptr @MainLWLockArray, align 8
  %6 = getelementptr inbounds %union.LWLockPadded, ptr %5, i64 9
  %7 = call zeroext i1 @LWLockAcquire(ptr noundef %6, i32 noundef 0)
  %8 = load ptr, ptr @ControlFile, align 8
  %9 = getelementptr inbounds nuw %struct.ControlFileData, ptr %8, i32 0, i32 3
  store i32 5, ptr %9, align 8
  %10 = load ptr, ptr @ControlFile, align 8
  %11 = getelementptr inbounds nuw %struct.ControlFileData, ptr %10, i32 0, i32 8
  %12 = load i64, ptr %11, align 8
  %13 = load i64, ptr %3, align 8
  %14 = icmp ult i64 %12, %13
  br i1 %14, label %15, label %22

15:                                               ; preds = %2
  %16 = load i64, ptr %3, align 8
  %17 = load ptr, ptr @ControlFile, align 8
  %18 = getelementptr inbounds nuw %struct.ControlFileData, ptr %17, i32 0, i32 8
  store i64 %16, ptr %18, align 8
  %19 = load i32, ptr %4, align 4
  %20 = load ptr, ptr @ControlFile, align 8
  %21 = getelementptr inbounds nuw %struct.ControlFileData, ptr %20, i32 0, i32 9
  store i32 %19, ptr %21, align 8
  br label %22

22:                                               ; preds = %15, %2
  %23 = load ptr, ptr @ControlFile, align 8
  %24 = getelementptr inbounds nuw %struct.ControlFileData, ptr %23, i32 0, i32 8
  %25 = load i64, ptr %24, align 8
  store i64 %25, ptr @LocalMinRecoveryPoint, align 8
  %26 = load ptr, ptr @ControlFile, align 8
  %27 = getelementptr inbounds nuw %struct.ControlFileData, ptr %26, i32 0, i32 9
  %28 = load i32, ptr %27, align 8
  store i32 %28, ptr @LocalMinRecoveryPointTLI, align 4
  store i8 1, ptr @updateMinRecoveryPoint, align 1
  call void @UpdateControlFile()
  %29 = load ptr, ptr @XLogCtl, align 8
  %30 = getelementptr inbounds nuw %struct.XLogCtlData, ptr %29, i32 0, i32 26
  %31 = call i32 @tas(ptr noundef %30)
  %32 = icmp ne i32 %31, 0
  br i1 %32, label %33, label %37

33:                                               ; preds = %22
  %34 = load ptr, ptr @XLogCtl, align 8
  %35 = getelementptr inbounds nuw %struct.XLogCtlData, ptr %34, i32 0, i32 26
  %36 = call i32 @s_lock(ptr noundef %35, ptr noundef @.str.14, i32 noundef 6256, ptr noundef @__func__.SwitchIntoArchiveRecovery)
  br label %38

37:                                               ; preds = %22
  br label %38

38:                                               ; preds = %37, %33
  %39 = load ptr, ptr @XLogCtl, align 8
  %40 = getelementptr inbounds nuw %struct.XLogCtlData, ptr %39, i32 0, i32 19
  store i32 1, ptr %40, align 4
  br label %41

41:                                               ; preds = %38
  call void asm sideeffect "", "~{memory},~{dirflag},~{fpsr},~{flags}"() #16, !srcloc !66
  %42 = load ptr, ptr @XLogCtl, align 8
  %43 = getelementptr inbounds nuw %struct.XLogCtlData, ptr %42, i32 0, i32 26
  store i8 0, ptr %43, align 8
  br label %44

44:                                               ; preds = %41
  %45 = load ptr, ptr @MainLWLockArray, align 8
  %46 = getelementptr inbounds %union.LWLockPadded, ptr %45, i64 9
  call void @LWLockRelease(ptr noundef %46)
  ret void
}