; Function Attrs: nounwind uwtable
define dso_local void @SwitchIntoArchiveRecovery(i64 noundef %0, i32 noundef %1) local_unnamed_addr #0 {
  %3 = load ptr, ptr @MainLWLockArray, align 8
  %4 = getelementptr inbounds nuw i8, ptr %3, i64 1152
  %5 = tail call zeroext i1 @LWLockAcquire(ptr noundef nonnull %4, i32 noundef 0) #26
  %6 = load ptr, ptr @ControlFile, align 8
  %7 = getelementptr inbounds nuw i8, ptr %6, i64 16
  store i32 5, ptr %7, align 8
  %8 = getelementptr inbounds nuw i8, ptr %6, i64 136
  %9 = load i64, ptr %8, align 8
  %10 = icmp ult i64 %9, %0
  br i1 %10, label %11, label %13

11:                                               ; preds = %2
  store i64 %0, ptr %8, align 8
  %12 = getelementptr inbounds nuw i8, ptr %6, i64 144
  store i32 %1, ptr %12, align 8
  br label %13

13:                                               ; preds = %11, %2
  %14 = phi i64 [ %0, %11 ], [ %9, %2 ]
  store i64 %14, ptr @LocalMinRecoveryPoint, align 8
  store i1 false, ptr @updateMinRecoveryPoint, align 1
  %15 = load ptr, ptr @DataDir, align 8
  tail call void @update_controlfile(ptr noundef %15, ptr noundef nonnull %6, i1 noundef zeroext true) #26
  %16 = load ptr, ptr @XLogCtl, align 8
  %17 = getelementptr inbounds nuw i8, ptr %16, i64 448
  %18 = tail call i8 asm sideeffect "\09lock\09\09\09\0A\09xchgb\09$0,$1\09\0A", "=q,=*m,0,*m,~{memory},~{cc},~{dirflag},~{fpsr},~{flags}"(ptr nonnull elementtype(i8) %17, i8 1, ptr nonnull elementtype(i8) %17) #26, !srcloc !10
  %.not = icmp eq i8 %18, 0
  br i1 %.not, label %23, label %19

19:                                               ; preds = %13
  %20 = load ptr, ptr @XLogCtl, align 8
  %21 = getelementptr inbounds nuw i8, ptr %20, i64 448
  %22 = tail call i32 @s_lock(ptr noundef nonnull %21, ptr noundef nonnull @.str.14, i32 noundef 6256, ptr noundef nonnull @__func__.SwitchIntoArchiveRecovery) #26
  br label %23

23:                                               ; preds = %13, %19
  %24 = load ptr, ptr @XLogCtl, align 8
  %25 = getelementptr inbounds nuw i8, ptr %24, i64 324
  store i32 1, ptr %25, align 4
  tail call void asm sideeffect "", "~{memory},~{dirflag},~{fpsr},~{flags}"() #26, !srcloc !70
  %26 = load ptr, ptr @XLogCtl, align 8
  %27 = getelementptr inbounds nuw i8, ptr %26, i64 448
  store i8 0, ptr %27, align 8
  %28 = load ptr, ptr @MainLWLockArray, align 8
  %29 = getelementptr inbounds nuw i8, ptr %28, i64 1152
  tail call void @LWLockRelease(ptr noundef nonnull %29) #26
  ret void
}